target datalayout = "e-m:e-p270:32:32-p271:32:32-p272:64:64-i64:64-i128:128-f80:128-n8:16:32:64-S128"
target triple = "x86_64-pc-linux-gnu"

%struct.StepRequest = type { i32, i32, i8, i8, i8, i32, i32, ptr, ptr, i32, ptr, ptr, ptr, ptr }
%struct.BackendGlobalData = type <{ ptr, ptr, i8, i8, i8, i8, i8, i8, i8, i8, i8, [3 x i8], i32, ptr, ptr, ptr, ptr, ptr, ptr, ptr, ptr, ptr, ptr, ptr, ptr, ptr, i32, %struct.jvmtiCapabilities, i8, [3 x i8], %struct.jvmtiEventCallbacks, ptr, ptr, ptr, ptr, ptr, ptr, ptr, i32, [4 x i8], ptr, i64, i32, [4 x i8], ptr, i32, i32, i8, i8, [6 x i8] }>
%struct.jvmtiCapabilities = type { i64, i64 }
%struct.jvmtiEventCallbacks = type { ptr, ptr, ptr, ptr, ptr, ptr, ptr, ptr, ptr, ptr, ptr, ptr, ptr, ptr, ptr, ptr, ptr, ptr, ptr, ptr, ptr, ptr, ptr, ptr, ptr, ptr, ptr, ptr, ptr, ptr, ptr, ptr, ptr, ptr, ptr, ptr, ptr, ptr, ptr }
%struct.EventInfo = type { i32, ptr, i8, ptr, ptr, i64, ptr, %union.anon }
%union.anon = type { %struct.anon.0 }
%struct.anon.0 = type { ptr, ptr, i8, %union.jvalue }
%union.jvalue = type { i64 }

@stderr = external global ptr, align 8
@.str = private unnamed_addr constant [17 x i8] c"JDWP exit error \00", align 1
@.str.1 = private unnamed_addr constant [2 x i8] c"\0A\00", align 1
@.str.2 = private unnamed_addr constant [19 x i8] c"%s(%d): %s [%s:%d]\00", align 1
@.str.3 = private unnamed_addr constant [21 x i8] c"getting step request\00", align 1
@.str.4 = private unnamed_addr constant [54 x i8] c"src/jdk.jdwp.agent/share/native/libjdwp/stepControl.c\00", align 1
@gdata = external global ptr, align 8
@.str.5 = private unnamed_addr constant [5 x i8] c"STEP\00", align 1
@stepLock = internal global ptr null, align 8
@.str.39 = private unnamed_addr constant [37 x i8] c"step->depth == JDWP_STEP_DEPTH(INTO)\00", align 1
@.str.50 = private unnamed_addr constant [57 x i8] c"handleFramePopEvent: BEGIN fromDepth=%d, currentDepth=%d\00", align 1
@.str.51 = private unnamed_addr constant [54 x i8] c"handleFramePopEvent: starting singlestep, depth==OVER\00", align 1
@.str.52 = private unnamed_addr constant [90 x i8] c"handleFramePopEvent: starting singlestep, depth==OUT && fromDepth > afterPopDepth (%d>%d)\00", align 1
@.str.53 = private unnamed_addr constant [121 x i8] c"handleFramePopEvent: starting singlestep, have methodEnter handler && depth==INTO && fromDepth >= afterPopDepth (%d>=%d)\00", align 1
@.str.54 = private unnamed_addr constant [119 x i8] c"handleFramePopEvent: starting singlestep, have methodEnter handler && depth==INTO && fromDepth < afterPopDepth (%d<%d)\00", align 1
@.str.55 = private unnamed_addr constant [30 x i8] c"handleFramePopEvent: finished\00", align 1

; Function Attrs: nounwind uwtable
define hidden void @stepControl_unlock() #0 {
  %1 = load ptr, ptr @stepLock, align 8
  call void @debugMonitorExit(ptr noundef %1)
  ret void
}

; Function Attrs: nounwind uwtable
define hidden void @stepControl_lock() #0 {
  %1 = load ptr, ptr @stepLock, align 8
  call void @debugMonitorEnter(ptr noundef %1)
  ret void
}

; Function Attrs: nounwind uwtable
define internal void @handleFramePopEvent(ptr noundef %0, ptr noundef %1, ptr noundef %2, ptr noundef %3) #0 {
  %5 = alloca ptr, align 8
  %6 = alloca ptr, align 8
  %7 = alloca ptr, align 8
  %8 = alloca ptr, align 8
  %9 = alloca ptr, align 8
  %10 = alloca ptr, align 8
  %11 = alloca i32, align 4
  %12 = alloca i32, align 4
  %13 = alloca i32, align 4
  store ptr %0, ptr %5, align 8
  store ptr %1, ptr %6, align 8
  store ptr %2, ptr %7, align 8
  store ptr %3, ptr %8, align 8
  %14 = load ptr, ptr %6, align 8
  %15 = getelementptr inbounds %struct.EventInfo, ptr %14, i32 0, i32 1
  %16 = load ptr, ptr %15, align 8
  store ptr %16, ptr %10, align 8
  call void @stepControl_lock()
  %17 = load ptr, ptr %10, align 8
  %18 = call ptr @threadControl_getStepRequest(ptr noundef %17)
  store ptr %18, ptr %9, align 8
  %19 = load ptr, ptr %9, align 8
  %20 = icmp eq ptr %19, null
  br i1 %20, label %21, label %24

21:                                               ; preds = %4
  %22 = load ptr, ptr @stderr, align 8
  %23 = call ptr @jvmtiErrorText(i32 noundef 203)
  call void (ptr, ptr, ptr, ptr, ...) @print_message(ptr noundef %22, ptr noundef @.str, ptr noundef @.str.1, ptr noundef @.str.2, ptr noundef %23, i32 noundef 203, ptr noundef @.str.3, ptr noundef @.str.4, i32 noundef 272)
  call void @debugInit_exit(i32 noundef 203, ptr noundef @.str.3)
  br label %24

24:                                               ; preds = %21, %4
  %25 = load ptr, ptr %9, align 8
  %26 = getelementptr inbounds %struct.StepRequest, ptr %25, i32 0, i32 2
  %27 = load i8, ptr %26, align 8
  %28 = icmp ne i8 %27, 0
  br i1 %28, label %29, label %156

29:                                               ; preds = %24
  %30 = load ptr, ptr %10, align 8
  %31 = call i32 @getFrameCount(ptr noundef %30)
  store i32 %31, ptr %11, align 4
  %32 = load ptr, ptr %9, align 8
  %33 = getelementptr inbounds %struct.StepRequest, ptr %32, i32 0, i32 5
  %34 = load i32, ptr %33, align 4
  store i32 %34, ptr %12, align 4
  %35 = load i32, ptr %11, align 4
  %36 = sub nsw i32 %35, 1
  store i32 %36, ptr %13, align 4
  %37 = load ptr, ptr @gdata, align 8
  %38 = getelementptr inbounds %struct.BackendGlobalData, ptr %37, i32 0, i32 38
  %39 = load i32, ptr %38, align 8
  %40 = and i32 %39, 16
  %41 = icmp ne i32 %40, 0
  br i1 %41, label %42, label %45

42:                                               ; preds = %29
  call void @log_message_begin(ptr noundef @.str.5, ptr noundef @.str.4, i32 noundef 289)
  %43 = load i32, ptr %12, align 4
  %44 = load i32, ptr %11, align 4
  call void (ptr, ...) @log_message_end(ptr noundef @.str.50, i32 noundef %43, i32 noundef %44)
  br label %46

45:                                               ; preds = %29
  br label %46

46:                                               ; preds = %45, %42
  %47 = load i32, ptr %12, align 4
  %48 = load i32, ptr %13, align 4
  %49 = icmp sgt i32 %47, %48
  br i1 %49, label %50, label %53

50:                                               ; preds = %46
  %51 = load ptr, ptr %9, align 8
  %52 = getelementptr inbounds %struct.StepRequest, ptr %51, i32 0, i32 3
  store i8 1, ptr %52, align 1
  br label %53

53:                                               ; preds = %50, %46
  %54 = load ptr, ptr %9, align 8
  %55 = getelementptr inbounds %struct.StepRequest, ptr %54, i32 0, i32 1
  %56 = load i32, ptr %55, align 4
  %57 = icmp eq i32 %56, 1
  br i1 %57, label %58, label %68

58:                                               ; preds = %53
  %59 = load ptr, ptr @gdata, align 8
  %60 = getelementptr inbounds %struct.BackendGlobalData, ptr %59, i32 0, i32 38
  %61 = load i32, ptr %60, align 8
  %62 = and i32 %61, 16
  %63 = icmp ne i32 %62, 0
  br i1 %63, label %64, label %65

64:                                               ; preds = %58
  call void @log_message_begin(ptr noundef @.str.5, ptr noundef @.str.4, i32 noundef 334)
  call void (ptr, ...) @log_message_end(ptr noundef @.str.51)
  br label %66

65:                                               ; preds = %58
  br label %66

66:                                               ; preds = %65, %64
  %67 = load ptr, ptr %10, align 8
  call void @enableStepping(ptr noundef %67)
  br label %147

68:                                               ; preds = %53
  %69 = load ptr, ptr %9, align 8
  %70 = getelementptr inbounds %struct.StepRequest, ptr %69, i32 0, i32 1
  %71 = load i32, ptr %70, align 4
  %72 = icmp eq i32 %71, 2
  br i1 %72, label %73, label %89

73:                                               ; preds = %68
  %74 = load i32, ptr %12, align 4
  %75 = load i32, ptr %13, align 4
  %76 = icmp sgt i32 %74, %75
  br i1 %76, label %77, label %89

77:                                               ; preds = %73
  %78 = load ptr, ptr @gdata, align 8
  %79 = getelementptr inbounds %struct.BackendGlobalData, ptr %78, i32 0, i32 38
  %80 = load i32, ptr %79, align 8
  %81 = and i32 %80, 16
  %82 = icmp ne i32 %81, 0
  br i1 %82, label %83, label %86

83:                                               ; preds = %77
  call void @log_message_begin(ptr noundef @.str.5, ptr noundef @.str.4, i32 noundef 342)
  %84 = load i32, ptr %12, align 4
  %85 = load i32, ptr %13, align 4
  call void (ptr, ...) @log_message_end(ptr noundef @.str.52, i32 noundef %84, i32 noundef %85)
  br label %87

86:                                               ; preds = %77
  br label %87

87:                                               ; preds = %86, %83
  %88 = load ptr, ptr %10, align 8
  call void @enableStepping(ptr noundef %88)
  br label %146

89:                                               ; preds = %73, %68
  %90 = load ptr, ptr %9, align 8
  %91 = getelementptr inbounds %struct.StepRequest, ptr %90, i32 0, i32 13
  %92 = load ptr, ptr %91, align 8
  %93 = icmp ne ptr %92, null
  br i1 %93, label %94, label %145

94:                                               ; preds = %89
  br label %95

95:                                               ; preds = %94
  %96 = load ptr, ptr @gdata, align 8
  %97 = icmp ne ptr %96, null
  br i1 %97, label %98, label %110

98:                                               ; preds = %95
  %99 = load ptr, ptr @gdata, align 8
  %100 = getelementptr inbounds %struct.BackendGlobalData, ptr %99, i32 0, i32 3
  %101 = load i8, ptr %100, align 1
  %102 = zext i8 %101 to i32
  %103 = icmp ne i32 %102, 0
  br i1 %103, label %104, label %110

104:                                              ; preds = %98
  %105 = load ptr, ptr %9, align 8
  %106 = getelementptr inbounds %struct.StepRequest, ptr %105, i32 0, i32 1
  %107 = load i32, ptr %106, align 4
  %108 = icmp eq i32 %107, 0
  br i1 %108, label %110, label %109

109:                                              ; preds = %104
  call void @jdiAssertionFailed(ptr noundef @.str.4, i32 noundef 346, ptr noundef @.str.39)
  br label %110

110:                                              ; preds = %109, %104, %98, %95
  br label %111

111:                                              ; preds = %110
  %112 = load i32, ptr %12, align 4
  %113 = load i32, ptr %13, align 4
  %114 = icmp sge i32 %112, %113
  br i1 %114, label %115, label %133

115:                                              ; preds = %111
  %116 = load ptr, ptr @gdata, align 8
  %117 = getelementptr inbounds %struct.BackendGlobalData, ptr %116, i32 0, i32 38
  %118 = load i32, ptr %117, align 8
  %119 = and i32 %118, 16
  %120 = icmp ne i32 %119, 0
  br i1 %120, label %121, label %124

121:                                              ; preds = %115
  call void @log_message_begin(ptr noundef @.str.5, ptr noundef @.str.4, i32 noundef 352)
  %122 = load i32, ptr %12, align 4
  %123 = load i32, ptr %13, align 4
  call void (ptr, ...) @log_message_end(ptr noundef @.str.53, i32 noundef %122, i32 noundef %123)
  br label %125

124:                                              ; preds = %115
  br label %125

125:                                              ; preds = %124, %121
  %126 = load ptr, ptr %10, align 8
  call void @enableStepping(ptr noundef %126)
  %127 = load ptr, ptr %9, align 8
  %128 = getelementptr inbounds %struct.StepRequest, ptr %127, i32 0, i32 13
  %129 = load ptr, ptr %128, align 8
  %130 = call i32 @eventHandler_free(ptr noundef %129)
  %131 = load ptr, ptr %9, align 8
  %132 = getelementptr inbounds %struct.StepRequest, ptr %131, i32 0, i32 13
  store ptr null, ptr %132, align 8
  br label %144

133:                                              ; preds = %111
  %134 = load ptr, ptr @gdata, align 8
  %135 = getelementptr inbounds %struct.BackendGlobalData, ptr %134, i32 0, i32 38
  %136 = load i32, ptr %135, align 8
  %137 = and i32 %136, 16
  %138 = icmp ne i32 %137, 0
  br i1 %138, label %139, label %142

139:                                              ; preds = %133
  call void @log_message_begin(ptr noundef @.str.5, ptr noundef @.str.4, i32 noundef 357)
  %140 = load i32, ptr %12, align 4
  %141 = load i32, ptr %13, align 4
  call void (ptr, ...) @log_message_end(ptr noundef @.str.54, i32 noundef %140, i32 noundef %141)
  br label %143

142:                                              ; preds = %133
  br label %143

143:                                              ; preds = %142, %139
  br label %144

144:                                              ; preds = %143, %125
  br label %145

145:                                              ; preds = %144, %89
  br label %146

146:                                              ; preds = %145, %87
  br label %147

147:                                              ; preds = %146, %66
  %148 = load ptr, ptr @gdata, align 8
  %149 = getelementptr inbounds %struct.BackendGlobalData, ptr %148, i32 0, i32 38
  %150 = load i32, ptr %149, align 8
  %151 = and i32 %150, 16
  %152 = icmp ne i32 %151, 0
  br i1 %152, label %153, label %154

153:                                              ; preds = %147
  call void @log_message_begin(ptr noundef @.str.5, ptr noundef @.str.4, i32 noundef 360)
  call void (ptr, ...) @log_message_end(ptr noundef @.str.55)
  br label %155

154:                                              ; preds = %147
  br label %155

155:                                              ; preds = %154, %153
  br label %156

156:                                              ; preds = %155, %24
  call void @stepControl_unlock()
  ret void
}