; Function Attrs: nounwind uwtable
define internal void @handleFramePopEvent(ptr nocapture readnone %0, ptr nocapture noundef readonly %1, ptr nocapture readnone %2, ptr nocapture readnone %3) #0 {
  %5 = getelementptr inbounds i8, ptr %1, i64 8
  %6 = load ptr, ptr %5, align 8
  %7 = load ptr, ptr @stepLock, align 8
  tail call void @debugMonitorEnter(ptr noundef %7) #4
  %8 = tail call ptr @threadControl_getStepRequest(ptr noundef %6) #4
  %9 = icmp eq ptr %8, null
  br i1 %9, label %10, label %13

10:                                               ; preds = %4
  %11 = load ptr, ptr @stderr, align 8
  %12 = tail call ptr @jvmtiErrorText(i32 noundef 203) #4
  tail call void (ptr, ptr, ptr, ptr, ...) @print_message(ptr noundef %11, ptr noundef nonnull @.str, ptr noundef nonnull @.str.1, ptr noundef nonnull @.str.2, ptr noundef %12, i32 noundef 203, ptr noundef nonnull @.str.3, ptr noundef nonnull @.str.4, i32 noundef 272) #4
  tail call void @debugInit_exit(i32 noundef 203, ptr noundef nonnull @.str.3) #4
  br label %13

13:                                               ; preds = %10, %4
  %14 = getelementptr inbounds i8, ptr %8, i64 8
  %15 = load i8, ptr %14, align 8
  %.not = icmp eq i8 %15, 0
  br i1 %.not, label %75, label %16

16:                                               ; preds = %13
  %17 = tail call fastcc i32 @getFrameCount(ptr noundef %6)
  %18 = getelementptr inbounds i8, ptr %8, i64 12
  %19 = load i32, ptr %18, align 4
  %20 = add nsw i32 %17, -1
  %21 = load ptr, ptr @gdata, align 8
  %22 = getelementptr inbounds i8, ptr %21, i64 528
  %23 = load i32, ptr %22, align 8
  %24 = and i32 %23, 16
  %.not35 = icmp eq i32 %24, 0
  br i1 %.not35, label %26, label %25

25:                                               ; preds = %16
  tail call void @log_message_begin(ptr noundef nonnull @.str.5, ptr noundef nonnull @.str.4, i32 noundef 289) #4
  tail call void (ptr, ...) @log_message_end(ptr noundef nonnull @.str.50, i32 noundef %19, i32 noundef %17) #4
  br label %26

26:                                               ; preds = %16, %25
  %.not36 = icmp slt i32 %19, %17
  br i1 %.not36, label %29, label %27

27:                                               ; preds = %26
  %28 = getelementptr inbounds i8, ptr %8, i64 9
  store i8 1, ptr %28, align 1
  br label %29

29:                                               ; preds = %27, %26
  %30 = getelementptr inbounds i8, ptr %8, i64 4
  %31 = load i32, ptr %30, align 4
  switch i32 %31, label %47 [
    i32 1, label %32
    i32 2, label %39
  ]

32:                                               ; preds = %29
  %33 = load ptr, ptr @gdata, align 8
  %34 = getelementptr inbounds i8, ptr %33, i64 528
  %35 = load i32, ptr %34, align 8
  %36 = and i32 %35, 16
  %.not44 = icmp eq i32 %36, 0
  br i1 %.not44, label %38, label %37

37:                                               ; preds = %32
  tail call void @log_message_begin(ptr noundef nonnull @.str.5, ptr noundef nonnull @.str.4, i32 noundef 334) #4
  tail call void (ptr, ...) @log_message_end(ptr noundef nonnull @.str.51) #4
  br label %38

38:                                               ; preds = %32, %37
  tail call fastcc void @enableStepping(ptr noundef %6)
  br label %69

39:                                               ; preds = %29
  br i1 %.not36, label %47, label %40

40:                                               ; preds = %39
  %41 = load ptr, ptr @gdata, align 8
  %42 = getelementptr inbounds i8, ptr %41, i64 528
  %43 = load i32, ptr %42, align 8
  %44 = and i32 %43, 16
  %.not43 = icmp eq i32 %44, 0
  br i1 %.not43, label %46, label %45

45:                                               ; preds = %40
  tail call void @log_message_begin(ptr noundef nonnull @.str.5, ptr noundef nonnull @.str.4, i32 noundef 342) #4
  tail call void (ptr, ...) @log_message_end(ptr noundef nonnull @.str.52, i32 noundef %19, i32 noundef %20) #4
  br label %46

46:                                               ; preds = %40, %45
  tail call fastcc void @enableStepping(ptr noundef %6)
  br label %69

47:                                               ; preds = %29, %39
  %48 = getelementptr inbounds i8, ptr %8, i64 72
  %49 = load ptr, ptr %48, align 8
  %.not37 = icmp eq ptr %49, null
  br i1 %.not37, label %69, label %50

50:                                               ; preds = %47
  %51 = load ptr, ptr @gdata, align 8
  %.not38 = icmp eq ptr %51, null
  br i1 %.not38, label %57, label %52

52:                                               ; preds = %50
  %53 = getelementptr inbounds i8, ptr %51, i64 17
  %54 = load i8, ptr %53, align 1
  %.not39 = icmp eq i8 %54, 0
  %55 = icmp eq i32 %31, 0
  %or.cond = or i1 %55, %.not39
  br i1 %or.cond, label %57, label %56

56:                                               ; preds = %52
  tail call void @jdiAssertionFailed(ptr noundef nonnull @.str.4, i32 noundef 346, ptr noundef nonnull @.str.39) #4
  br label %57

57:                                               ; preds = %50, %52, %56
  %.not40 = icmp slt i32 %19, %20
  %58 = load ptr, ptr @gdata, align 8
  %59 = getelementptr inbounds i8, ptr %58, i64 528
  %60 = load i32, ptr %59, align 8
  %61 = and i32 %60, 16
  %.not41 = icmp eq i32 %61, 0
  br i1 %.not40, label %67, label %62

62:                                               ; preds = %57
  br i1 %.not41, label %64, label %63

63:                                               ; preds = %62
  tail call void @log_message_begin(ptr noundef nonnull @.str.5, ptr noundef nonnull @.str.4, i32 noundef 352) #4
  tail call void (ptr, ...) @log_message_end(ptr noundef nonnull @.str.53, i32 noundef %19, i32 noundef %20) #4
  br label %64

64:                                               ; preds = %62, %63
  tail call fastcc void @enableStepping(ptr noundef %6)
  %65 = load ptr, ptr %48, align 8
  %66 = tail call i32 @eventHandler_free(ptr noundef %65) #4
  store ptr null, ptr %48, align 8
  br label %69

67:                                               ; preds = %57
  br i1 %.not41, label %69, label %68

68:                                               ; preds = %67
  tail call void @log_message_begin(ptr noundef nonnull @.str.5, ptr noundef nonnull @.str.4, i32 noundef 357) #4
  tail call void (ptr, ...) @log_message_end(ptr noundef nonnull @.str.54, i32 noundef %19, i32 noundef %20) #4
  br label %69

69:                                               ; preds = %46, %64, %67, %68, %47, %38
  %70 = load ptr, ptr @gdata, align 8
  %71 = getelementptr inbounds i8, ptr %70, i64 528
  %72 = load i32, ptr %71, align 8
  %73 = and i32 %72, 16
  %.not45 = icmp eq i32 %73, 0
  br i1 %.not45, label %75, label %74

74:                                               ; preds = %69
  tail call void @log_message_begin(ptr noundef nonnull @.str.5, ptr noundef nonnull @.str.4, i32 noundef 360) #4
  tail call void (ptr, ...) @log_message_end(ptr noundef nonnull @.str.55) #4
  br label %75

75:                                               ; preds = %74, %69, %13
  %76 = load ptr, ptr @stepLock, align 8
  tail call void @debugMonitorExit(ptr noundef %76) #4
  ret void
}